target datalayout = "e-m:e-p270:32:32-p271:32:32-p272:64:64-i64:64-i128:128-f80:128-n8:16:32:64-S128"
target triple = "x86_64-pc-linux-gnu"

%union.UElement = type { ptr }

; Function Attrs: mustprogress nounwind uwtable
define signext i8 @uhash_compareUChars_77(ptr %0, ptr %1) #2 {
  %3 = alloca i8, align 1
  %4 = alloca %union.UElement, align 8
  %5 = alloca %union.UElement, align 8
  %6 = alloca ptr, align 8
  %7 = alloca ptr, align 8
  %8 = alloca i32, align 4
  %9 = getelementptr inbounds nuw %union.UElement, ptr %4, i32 0, i32 0
  store ptr %0, ptr %9, align 8
  %10 = getelementptr inbounds nuw %union.UElement, ptr %5, i32 0, i32 0
  store ptr %1, ptr %10, align 8
  call void @llvm.lifetime.start.p0(i64 8, ptr %6) #9
  %11 = load ptr, ptr %4, align 8, !tbaa !27
  store ptr %11, ptr %6, align 8, !tbaa !50
  call void @llvm.lifetime.start.p0(i64 8, ptr %7) #9
  %12 = load ptr, ptr %5, align 8, !tbaa !27
  store ptr %12, ptr %7, align 8, !tbaa !50
  %13 = load ptr, ptr %6, align 8, !tbaa !50
  %14 = load ptr, ptr %7, align 8, !tbaa !50
  %15 = icmp eq ptr %13, %14
  br i1 %15, label %16, label %17

16:                                               ; preds = %2
  store i8 1, ptr %3, align 1
  store i32 1, ptr %8, align 4
  br label %54

17:                                               ; preds = %2
  %18 = load ptr, ptr %6, align 8, !tbaa !50
  %19 = icmp eq ptr %18, null
  br i1 %19, label %23, label %20

20:                                               ; preds = %17
  %21 = load ptr, ptr %7, align 8, !tbaa !50
  %22 = icmp eq ptr %21, null
  br i1 %22, label %23, label %24

23:                                               ; preds = %20, %17
  store i8 0, ptr %3, align 1
  store i32 1, ptr %8, align 4
  br label %54

24:                                               ; preds = %20
  br label %25

25:                                               ; preds = %40, %24
  %26 = load ptr, ptr %6, align 8, !tbaa !50
  %27 = load i16, ptr %26, align 2, !tbaa !59
  %28 = zext i16 %27 to i32
  %29 = icmp ne i32 %28, 0
  br i1 %29, label %30, label %38

30:                                               ; preds = %25
  %31 = load ptr, ptr %6, align 8, !tbaa !50
  %32 = load i16, ptr %31, align 2, !tbaa !59
  %33 = zext i16 %32 to i32
  %34 = load ptr, ptr %7, align 8, !tbaa !50
  %35 = load i16, ptr %34, align 2, !tbaa !59
  %36 = zext i16 %35 to i32
  %37 = icmp eq i32 %33, %36
  br label %38

38:                                               ; preds = %30, %25
  %39 = phi i1 [ false, %25 ], [ %37, %30 ]
  br i1 %39, label %40, label %45

40:                                               ; preds = %38
  %41 = load ptr, ptr %6, align 8, !tbaa !50
  %42 = getelementptr inbounds nuw i16, ptr %41, i32 1
  store ptr %42, ptr %6, align 8, !tbaa !50
  %43 = load ptr, ptr %7, align 8, !tbaa !50
  %44 = getelementptr inbounds nuw i16, ptr %43, i32 1
  store ptr %44, ptr %7, align 8, !tbaa !50
  br label %25, !llvm.loop !61

45:                                               ; preds = %38
  %46 = load ptr, ptr %6, align 8, !tbaa !50
  %47 = load i16, ptr %46, align 2, !tbaa !59
  %48 = zext i16 %47 to i32
  %49 = load ptr, ptr %7, align 8, !tbaa !50
  %50 = load i16, ptr %49, align 2, !tbaa !59
  %51 = zext i16 %50 to i32
  %52 = icmp eq i32 %48, %51
  %53 = zext i1 %52 to i8
  store i8 %53, ptr %3, align 1
  store i32 1, ptr %8, align 4
  br label %54

54:                                               ; preds = %45, %23, %16
  call void @llvm.lifetime.end.p0(i64 8, ptr %7) #9
  call void @llvm.lifetime.end.p0(i64 8, ptr %6) #9
  %55 = load i8, ptr %3, align 1
  ret i8 %55
}